; ModuleID = 'source-C-CXX/57/1074.c'
source_filename = "source-C-CXX/57/1074.c"
target datalayout = "e-m:e-p270:32:32-p271:32:32-p272:64:64-i64:64-f80:128-n8:16:32:64-S128"
target triple = "x86_64-pc-linux-gnu"

@.str = private unnamed_addr constant [3 x i8] c"%d\00", align 1
@str.3 = private unnamed_addr constant [2 x i8] c"1\00", align 1
@str.4 = private unnamed_addr constant [2 x i8] c"0\00", align 1

; Function Attrs: nounwind sspstrong uwtable
define dso_local i32 @main() local_unnamed_addr #0 {
  %1 = alloca i32, align 4
  %2 = alloca [100 x i8], align 16
  %3 = bitcast i32* %1 to i8*
  call void @llvm.lifetime.start.p0i8(i64 4, i8* nonnull %3) #7
  %4 = getelementptr inbounds [100 x i8], [100 x i8]* %2, i64 0, i64 0
  call void @llvm.lifetime.start.p0i8(i64 100, i8* nonnull %4) #7
  call void @llvm.memset.p0i8.i64(i8* noundef nonnull align 16 dereferenceable(100) %4, i8 0, i64 100, i1 false)
  %5 = call i32 (i8*, ...) @__isoc99_scanf(i8* getelementptr inbounds ([3 x i8], [3 x i8]* @.str, i64 0, i64 0), i32* nonnull %1)
  %6 = load i32, i32* %1, align 4, !tbaa !5
  %7 = icmp slt i32 %6, 0
  br i1 %7, label %56, label %8

8:                                                ; preds = %0, %52
  %9 = phi i32 [ %53, %52 ], [ 0, %0 ]
  %10 = call i32 (i8*, ...) bitcast (i32 (...)* @gets to i32 (i8*, ...)*)(i8* nonnull %4) #7
  %11 = icmp eq i32 %9, 0
  br i1 %11, label %52, label %12

12:                                               ; preds = %8
  %13 = call i64 @strlen(i8* noundef nonnull %4) #8
  %14 = trunc i64 %13 to i32
  %15 = load i8, i8* %4, align 16, !tbaa !9
  %16 = add i8 %15, -48
  %17 = icmp ult i8 %16, 10
  br i1 %17, label %49, label %18

18:                                               ; preds = %12
  %19 = icmp sgt i32 %14, 0
  br i1 %19, label %20, label %45

20:                                               ; preds = %18
  %21 = and i64 %13, 4294967295
  br label %22

22:                                               ; preds = %42, %20
  %23 = phi i8 [ %15, %20 ], [ %44, %42 ]
  %24 = phi i64 [ 0, %20 ], [ %40, %42 ]
  %25 = phi i32 [ 0, %20 ], [ %39, %42 ]
  %26 = add i8 %23, -48
  %27 = icmp ult i8 %26, 10
  %28 = add i8 %23, -97
  %29 = icmp ult i8 %28, 26
  %30 = or i1 %27, %29
  br i1 %30, label %36, label %31

31:                                               ; preds = %22
  %32 = add i8 %23, -65
  %33 = icmp ult i8 %32, 26
  %34 = icmp eq i8 %23, 95
  %35 = or i1 %34, %33
  br i1 %35, label %36, label %38

36:                                               ; preds = %31, %22
  %37 = add nsw i32 %25, 1
  br label %38

38:                                               ; preds = %31, %36
  %39 = phi i32 [ %37, %36 ], [ %25, %31 ]
  %40 = add nuw nsw i64 %24, 1
  %41 = icmp eq i64 %40, %21
  br i1 %41, label %45, label %42, !llvm.loop !10

42:                                               ; preds = %38
  %43 = getelementptr inbounds [100 x i8], [100 x i8]* %2, i64 0, i64 %40
  %44 = load i8, i8* %43, align 1, !tbaa !9
  br label %22

45:                                               ; preds = %38, %18
  %46 = phi i32 [ 0, %18 ], [ %39, %38 ]
  %47 = icmp eq i32 %46, %14
  %48 = select i1 %47, i8* getelementptr inbounds ([2 x i8], [2 x i8]* @str.3, i64 0, i64 0), i8* getelementptr inbounds ([2 x i8], [2 x i8]* @str.4, i64 0, i64 0)
  br label %49

49:                                               ; preds = %45, %12
  %50 = phi i8* [ getelementptr inbounds ([2 x i8], [2 x i8]* @str.4, i64 0, i64 0), %12 ], [ %48, %45 ]
  %51 = call i32 @puts(i8* nonnull dereferenceable(1) %50)
  br label %52

52:                                               ; preds = %49, %8
  %53 = add nuw nsw i32 %9, 1
  %54 = load i32, i32* %1, align 4, !tbaa !5
  %55 = icmp slt i32 %9, %54
  br i1 %55, label %8, label %56, !llvm.loop !12

56:                                               ; preds = %52, %0
  call void @llvm.lifetime.end.p0i8(i64 100, i8* nonnull %4) #7
  call void @llvm.lifetime.end.p0i8(i64 4, i8* nonnull %3) #7
  ret i32 0
}

; Function Attrs: argmemonly mustprogress nofree nosync nounwind willreturn
declare void @llvm.lifetime.start.p0i8(i64 immarg, i8* nocapture) #1

; Function Attrs: argmemonly mustprogress nofree nounwind willreturn writeonly
declare void @llvm.memset.p0i8.i64(i8* nocapture writeonly, i8, i64, i1 immarg) #2

; Function Attrs: nofree nounwind
declare noundef i32 @__isoc99_scanf(i8* nocapture noundef readonly, ...) local_unnamed_addr #3

declare i32 @gets(...) local_unnamed_addr #4

; Function Attrs: argmemonly mustprogress nofree nounwind readonly willreturn
declare i64 @strlen(i8* nocapture) local_unnamed_addr #5

; Function Attrs: argmemonly mustprogress nofree nosync nounwind willreturn
declare void @llvm.lifetime.end.p0i8(i64 immarg, i8* nocapture) #1

; Function Attrs: nofree nounwind
declare noundef i32 @puts(i8* nocapture noundef readonly) local_unnamed_addr #6


!llvm.module.flags = !{!0, !1, !2, !3}
!llvm.ident = !{!4}

!0 = !{i32 1, !"wchar_size", i32 4}
!1 = !{i32 7, !"PIC Level", i32 2}
!2 = !{i32 7, !"PIE Level", i32 2}
!3 = !{i32 7, !"uwtable", i32 1}
!4 = !{!"clang version 13.0.0"}
!5 = !{!6, !6, i64 0}
!6 = !{!"int", !7, i64 0}
!7 = !{!"omnipotent char", !8, i64 0}
!8 = !{!"Simple C/C++ TBAA"}
!9 = !{!7, !7, i64 0}
!10 = distinct !{!10, !11}
!11 = !{!"llvm.loop.mustprogress"}
!12 = distinct !{!12, !11}
